target datalayout = "e-m:e-p270:32:32-p271:32:32-p272:64:64-i64:64-i128:128-f80:128-n8:16:32:64-S128"
target triple = "x86_64-pc-linux-gnu"

%"class.cv::obsensor::DepthFrameProcessor" = type { %"class.cv::obsensor::IFrameProcessor", %"struct.cv::obsensor::OBExtensionParam", ptr }
%"class.cv::obsensor::IFrameProcessor" = type { ptr }
%"struct.cv::obsensor::OBExtensionParam" = type { float, float, float, float }
%"struct.cv::obsensor::Frame" = type { i32, i32, i32, i32, ptr }

; Function Attrs: mustprogress nounwind uwtable
define hidden void @_ZN2cv8obsensor19DepthFrameProcessor7processEPNS0_5FrameE(ptr noundef nonnull align 8 dereferenceable(32) %0, ptr noundef %1) unnamed_addr #6 align 2 {
  %3 = alloca ptr, align 8
  %4 = alloca ptr, align 8
  %5 = alloca ptr, align 8
  %6 = alloca i32, align 4
  store ptr %0, ptr %3, align 8, !tbaa !100
  store ptr %1, ptr %4, align 8, !tbaa !121
  %7 = load ptr, ptr %3, align 8
  call void @llvm.lifetime.start.p0(i64 8, ptr %5) #3
  %8 = load ptr, ptr %4, align 8, !tbaa !121
  %9 = getelementptr inbounds nuw %"struct.cv::obsensor::Frame", ptr %8, i32 0, i32 4
  %10 = load ptr, ptr %9, align 8, !tbaa !123
  store ptr %10, ptr %5, align 8, !tbaa !125
  call void @llvm.lifetime.start.p0(i64 4, ptr %6) #3
  store i32 0, ptr %6, align 4, !tbaa !31
  br label %11

11:                                               ; preds = %36, %2
  %12 = load i32, ptr %6, align 4, !tbaa !31
  %13 = load ptr, ptr %4, align 8, !tbaa !121
  %14 = getelementptr inbounds nuw %"struct.cv::obsensor::Frame", ptr %13, i32 0, i32 3
  %15 = load i32, ptr %14, align 4, !tbaa !126
  %16 = udiv i32 %15, 2
  %17 = icmp ult i32 %12, %16
  br i1 %17, label %19, label %18

18:                                               ; preds = %11
  call void @llvm.lifetime.end.p0(i64 4, ptr %6) #3
  br label %39

19:                                               ; preds = %11
  %20 = getelementptr inbounds nuw %"class.cv::obsensor::DepthFrameProcessor", ptr %7, i32 0, i32 2
  %21 = load ptr, ptr %20, align 8, !tbaa !109
  %22 = load ptr, ptr %5, align 8, !tbaa !125
  %23 = load i32, ptr %6, align 4, !tbaa !31
  %24 = zext i32 %23 to i64
  %25 = getelementptr inbounds nuw i16, ptr %22, i64 %24
  %26 = load i16, ptr %25, align 2, !tbaa !114
  %27 = zext i16 %26 to i32
  %28 = and i32 %27, 4095
  %29 = sext i32 %28 to i64
  %30 = getelementptr inbounds i16, ptr %21, i64 %29
  %31 = load i16, ptr %30, align 2, !tbaa !114
  %32 = load ptr, ptr %5, align 8, !tbaa !125
  %33 = load i32, ptr %6, align 4, !tbaa !31
  %34 = zext i32 %33 to i64
  %35 = getelementptr inbounds nuw i16, ptr %32, i64 %34
  store i16 %31, ptr %35, align 2, !tbaa !114
  br label %36

36:                                               ; preds = %19
  %37 = load i32, ptr %6, align 4, !tbaa !31
  %38 = add i32 %37, 1
  store i32 %38, ptr %6, align 4, !tbaa !31
  br label %11, !llvm.loop !127

39:                                               ; preds = %18
  call void @llvm.lifetime.end.p0(i64 8, ptr %5) #3
  ret void
}