; Function Attrs: mustprogress nofree norecurse nosync nounwind memory(readwrite, inaccessiblemem: none) uwtable
define hidden void @_ZN2cv8obsensor19DepthFrameProcessor7processEPNS0_5FrameE(ptr noundef nonnull readonly align 8 captures(none) dereferenceable(32) %0, ptr noundef readonly captures(none) %1) unnamed_addr #13 align 2 {
  %3 = getelementptr inbounds nuw i8, ptr %1, i64 16
  %4 = load ptr, ptr %3, align 8, !tbaa !97
  %5 = getelementptr inbounds nuw i8, ptr %1, i64 12
  %6 = load i32, ptr %5, align 4, !tbaa !99
  %.not = icmp ult i32 %6, 2
  br i1 %.not, label %._crit_edge, label %.lr.ph

.lr.ph:                                           ; preds = %2
  %7 = lshr i32 %6, 1
  %8 = getelementptr inbounds nuw i8, ptr %0, i64 24
  %9 = load ptr, ptr %8, align 8, !tbaa !90
  %wide.trip.count = zext nneg i32 %7 to i64
  br label %10

._crit_edge:                                      ; preds = %10, %2
  ret void

10:                                               ; preds = %.lr.ph, %10
  %indvars.iv = phi i64 [ 0, %.lr.ph ], [ %indvars.iv.next, %10 ]
  %11 = getelementptr inbounds nuw i16, ptr %4, i64 %indvars.iv
  %12 = load i16, ptr %11, align 2, !tbaa !95
  %13 = and i16 %12, 4095
  %14 = zext nneg i16 %13 to i64
  %15 = getelementptr inbounds nuw i16, ptr %9, i64 %14
  %16 = load i16, ptr %15, align 2, !tbaa !95
  store i16 %16, ptr %11, align 2, !tbaa !95
  %indvars.iv.next = add nuw nsw i64 %indvars.iv, 1
  %exitcond.not = icmp eq i64 %indvars.iv.next, %wide.trip.count
  br i1 %exitcond.not, label %._crit_edge, label %10, !llvm.loop !100
}